target datalayout = "e-m:e-p270:32:32-p271:32:32-p272:64:64-i64:64-i128:128-f80:128-n8:16:32:64-S128"
target triple = "x86_64-pc-linux-gnu"

%"class.llvm::APInt" = type <{ %union.anon, i32, [4 x i8] }>
%union.anon = type { i64 }
%"class.llvm::Type" = type { ptr, i32, i32, ptr }

; Function Attrs: mustprogress nounwind uwtable
define linkonce_odr hidden noundef i32 @_ZN4llvm5APInt11getNumWordsEj(i32 noundef %0) #0 comdat align 2 {
  %2 = alloca i32, align 4
  store i32 %0, ptr %2, align 4
  %3 = load i32, ptr %2, align 4
  %4 = zext i32 %3 to i64
  %5 = add i64 %4, 64
  %6 = sub i64 %5, 1
  %7 = udiv i64 %6, 64
  %8 = trunc i64 %7 to i32
  ret i32 %8
}

; Function Attrs: mustprogress nounwind uwtable
define linkonce_odr hidden noundef i32 @_ZN4llvm5APInt8whichBitEj(i32 noundef %0) #0 comdat align 2 {
  %2 = alloca i32, align 4
  store i32 %0, ptr %2, align 4
  %3 = load i32, ptr %2, align 4
  %4 = urem i32 %3, 64
  ret i32 %4
}

; Function Attrs: mustprogress nounwind uwtable
define linkonce_odr hidden noundef i32 @_ZNK4llvm5APInt11getNumWordsEv(ptr noundef nonnull align 8 dereferenceable(12) %0) #0 comdat align 2 {
  %2 = alloca ptr, align 8
  store ptr %0, ptr %2, align 8
  %3 = load ptr, ptr %2, align 8
  %4 = getelementptr inbounds nuw %"class.llvm::APInt", ptr %3, i32 0, i32 1
  %5 = load i32, ptr %4, align 8
  %6 = call noundef i32 @_ZN4llvm5APInt11getNumWordsEj(i32 noundef %5)
  ret i32 %6
}

; Function Attrs: mustprogress nounwind uwtable
define linkonce_odr hidden noundef i32 @_ZN4llvm5APInt9whichWordEj(i32 noundef %0) #0 comdat align 2 {
  %2 = alloca i32, align 4
  store i32 %0, ptr %2, align 4
  %3 = load i32, ptr %2, align 4
  %4 = udiv i32 %3, 64
  ret i32 %4
}

; Function Attrs: mustprogress nounwind uwtable
define linkonce_odr hidden noundef i64 @_ZN4llvm5APInt7maskBitEj(i32 noundef %0) #0 comdat align 2 {
  %2 = alloca i32, align 4
  store i32 %0, ptr %2, align 4
  %3 = load i32, ptr %2, align 4
  %4 = call noundef i32 @_ZN4llvm5APInt8whichBitEj(i32 noundef %3)
  %5 = zext i32 %4 to i64
  %6 = shl i64 1, %5
  ret i64 %6
}

; Function Attrs: mustprogress nounwind uwtable
define linkonce_odr hidden noundef nonnull align 8 dereferenceable(12) ptr @_ZN4llvm5APInt15clearUnusedBitsEv(ptr noundef nonnull align 8 dereferenceable(12) %0) #0 comdat align 2 {
  %2 = alloca ptr, align 8
  %3 = alloca i32, align 4
  %4 = alloca i64, align 8
  store ptr %0, ptr %2, align 8
  %5 = load ptr, ptr %2, align 8
  %6 = getelementptr inbounds nuw %"class.llvm::APInt", ptr %5, i32 0, i32 1
  %7 = load i32, ptr %6, align 8
  %8 = sub i32 %7, 1
  %9 = urem i32 %8, 64
  %10 = add i32 %9, 1
  store i32 %10, ptr %3, align 4
  %11 = load i32, ptr %3, align 4
  %12 = sub i32 64, %11
  %13 = zext i32 %12 to i64
  %14 = lshr i64 -1, %13
  store i64 %14, ptr %4, align 8
  %15 = getelementptr inbounds nuw %"class.llvm::APInt", ptr %5, i32 0, i32 1
  %16 = load i32, ptr %15, align 8
  %17 = icmp eq i32 %16, 0
  br i1 %17, label %18, label %19

18:                                               ; preds = %1
  store i64 0, ptr %4, align 8
  br label %19

19:                                               ; preds = %18, %1
  %20 = call noundef zeroext i1 @_ZNK4llvm5APInt12isSingleWordEv(ptr noundef nonnull align 8 dereferenceable(12) %5)
  br i1 %20, label %21, label %26

21:                                               ; preds = %19
  %22 = load i64, ptr %4, align 8
  %23 = getelementptr inbounds nuw %"class.llvm::APInt", ptr %5, i32 0, i32 0
  %24 = load i64, ptr %23, align 8
  %25 = and i64 %24, %22
  store i64 %25, ptr %23, align 8
  br label %36

26:                                               ; preds = %19
  %27 = load i64, ptr %4, align 8
  %28 = getelementptr inbounds nuw %"class.llvm::APInt", ptr %5, i32 0, i32 0
  %29 = load ptr, ptr %28, align 8
  %30 = call noundef i32 @_ZNK4llvm5APInt11getNumWordsEv(ptr noundef nonnull align 8 dereferenceable(12) %5)
  %31 = sub i32 %30, 1
  %32 = zext i32 %31 to i64
  %33 = getelementptr inbounds i64, ptr %29, i64 %32
  %34 = load i64, ptr %33, align 8
  %35 = and i64 %34, %27
  store i64 %35, ptr %33, align 8
  br label %36

36:                                               ; preds = %26, %21
  ret ptr %5
}

; Function Attrs: mustprogress nounwind uwtable
define linkonce_odr hidden noundef zeroext i1 @_ZNK4llvm5APInt12isSingleWordEv(ptr noundef nonnull align 8 dereferenceable(12) %0) #0 comdat align 2 {
  %2 = alloca ptr, align 8
  store ptr %0, ptr %2, align 8
  %3 = load ptr, ptr %2, align 8
  %4 = getelementptr inbounds nuw %"class.llvm::APInt", ptr %3, i32 0, i32 1
  %5 = load i32, ptr %4, align 8
  %6 = icmp ule i32 %5, 64
  ret i1 %6
}

; Function Attrs: mustprogress nounwind uwtable
define linkonce_odr hidden noundef ptr @_ZN4llvm16cast_convert_valINS_11IntegerTypeEPNS_4TypeES3_E4doitEPKS2_(ptr noundef %0) #0 comdat align 2 {
  %2 = alloca ptr, align 8
  store ptr %0, ptr %2, align 8
  %3 = load ptr, ptr %2, align 8
  ret ptr %3
}

; Function Attrs: mustprogress nounwind uwtable
define linkonce_odr hidden noundef zeroext i1 @_ZNK4llvm5APInt12needsCleanupEv(ptr noundef nonnull align 8 dereferenceable(12) %0) #0 comdat align 2 {
  %2 = alloca ptr, align 8
  store ptr %0, ptr %2, align 8
  %3 = load ptr, ptr %2, align 8
  %4 = call noundef zeroext i1 @_ZNK4llvm5APInt12isSingleWordEv(ptr noundef nonnull align 8 dereferenceable(12) %3)
  %5 = xor i1 %4, true
  ret i1 %5
}

; Function Attrs: mustprogress nounwind uwtable
define linkonce_odr hidden void @_ZN4llvm5APInt6setBitEj(ptr noundef nonnull align 8 dereferenceable(12) %0, i32 noundef %1) #0 comdat align 2 {
  %3 = alloca ptr, align 8
  %4 = alloca i32, align 4
  %5 = alloca i64, align 8
  store ptr %0, ptr %3, align 8
  store i32 %1, ptr %4, align 4
  %6 = load ptr, ptr %3, align 8
  %7 = load i32, ptr %4, align 4
  %8 = call noundef i64 @_ZN4llvm5APInt7maskBitEj(i32 noundef %7)
  store i64 %8, ptr %5, align 8
  %9 = call noundef zeroext i1 @_ZNK4llvm5APInt12isSingleWordEv(ptr noundef nonnull align 8 dereferenceable(12) %6)
  br i1 %9, label %10, label %15

10:                                               ; preds = %2
  %11 = load i64, ptr %5, align 8
  %12 = getelementptr inbounds nuw %"class.llvm::APInt", ptr %6, i32 0, i32 0
  %13 = load i64, ptr %12, align 8
  %14 = or i64 %13, %11
  store i64 %14, ptr %12, align 8
  br label %25

15:                                               ; preds = %2
  %16 = load i64, ptr %5, align 8
  %17 = getelementptr inbounds nuw %"class.llvm::APInt", ptr %6, i32 0, i32 0
  %18 = load ptr, ptr %17, align 8
  %19 = load i32, ptr %4, align 4
  %20 = call noundef i32 @_ZN4llvm5APInt9whichWordEj(i32 noundef %19)
  %21 = zext i32 %20 to i64
  %22 = getelementptr inbounds i64, ptr %18, i64 %21
  %23 = load i64, ptr %22, align 8
  %24 = or i64 %23, %16
  store i64 %24, ptr %22, align 8
  br label %25

25:                                               ; preds = %15, %10
  ret void
}

; Function Attrs: mustprogress nounwind uwtable
define linkonce_odr hidden void @_ZN4llvm5APIntC2Ejmbb(ptr noundef nonnull align 8 dereferenceable(12) %0, i32 noundef %1, i64 noundef %2, i1 noundef zeroext %3, i1 noundef zeroext %4) unnamed_addr #0 comdat align 2 {
  %6 = alloca ptr, align 8
  %7 = alloca i32, align 4
  %8 = alloca i64, align 8
  %9 = alloca i8, align 1
  %10 = alloca i8, align 1
  store ptr %0, ptr %6, align 8
  store i32 %1, ptr %7, align 4
  store i64 %2, ptr %8, align 8
  %11 = zext i1 %3 to i8
  store i8 %11, ptr %9, align 1
  %12 = zext i1 %4 to i8
  store i8 %12, ptr %10, align 1
  %13 = load ptr, ptr %6, align 8
  %14 = getelementptr inbounds nuw %"class.llvm::APInt", ptr %13, i32 0, i32 1
  %15 = load i32, ptr %7, align 4
  store i32 %15, ptr %14, align 8
  %16 = load i8, ptr %10, align 1
  %17 = trunc i8 %16 to i1
  br i1 %17, label %30, label %18

18:                                               ; preds = %5
  %19 = getelementptr inbounds nuw %"class.llvm::APInt", ptr %13, i32 0, i32 1
  %20 = load i32, ptr %19, align 8
  %21 = icmp eq i32 %20, 0
  br i1 %21, label %22, label %23

22:                                               ; preds = %18
  br label %29

23:                                               ; preds = %18
  %24 = load i8, ptr %9, align 1
  %25 = trunc i8 %24 to i1
  br i1 %25, label %26, label %27

26:                                               ; preds = %23
  br label %28

27:                                               ; preds = %23
  br label %28

28:                                               ; preds = %27, %26
  br label %29

29:                                               ; preds = %28, %22
  br label %30

30:                                               ; preds = %29, %5
  %31 = call noundef zeroext i1 @_ZNK4llvm5APInt12isSingleWordEv(ptr noundef nonnull align 8 dereferenceable(12) %13)
  br i1 %31, label %32, label %43

32:                                               ; preds = %30
  %33 = load i64, ptr %8, align 8
  %34 = getelementptr inbounds nuw %"class.llvm::APInt", ptr %13, i32 0, i32 0
  store i64 %33, ptr %34, align 8
  %35 = load i8, ptr %10, align 1
  %36 = trunc i8 %35 to i1
  br i1 %36, label %40, label %37

37:                                               ; preds = %32
  %38 = load i8, ptr %9, align 1
  %39 = trunc i8 %38 to i1
  br i1 %39, label %40, label %42

40:                                               ; preds = %37, %32
  %41 = call noundef nonnull align 8 dereferenceable(12) ptr @_ZN4llvm5APInt15clearUnusedBitsEv(ptr noundef nonnull align 8 dereferenceable(12) %13)
  br label %42

42:                                               ; preds = %40, %37
  br label %47

43:                                               ; preds = %30
  %44 = load i64, ptr %8, align 8
  %45 = load i8, ptr %9, align 1
  %46 = trunc i8 %45 to i1
  call void @_ZN4llvm5APInt12initSlowCaseEmb(ptr noundef nonnull align 8 dereferenceable(12) %13, i64 noundef %44, i1 noundef zeroext %46)
  br label %47

47:                                               ; preds = %43, %42
  ret void
}

; Function Attrs: mustprogress nounwind uwtable
define linkonce_odr hidden noundef i32 @_ZNK4llvm4Type15getSubclassDataEv(ptr noundef nonnull align 8 dereferenceable(24) %0) #0 comdat align 2 {
  %2 = alloca ptr, align 8
  store ptr %0, ptr %2, align 8
  %3 = load ptr, ptr %2, align 8
  %4 = getelementptr inbounds nuw %"class.llvm::Type", ptr %3, i32 0, i32 1
  %5 = load i32, ptr %4, align 8
  %6 = lshr i32 %5, 8
  ret i32 %6
}

; Function Attrs: mustprogress nounwind uwtable
define linkonce_odr hidden noundef ptr @_ZN4llvm8CastInfoINS_11IntegerTypeEPNS_4TypeEvE6doCastERKS3_(ptr noundef nonnull align 8 dereferenceable(8) %0) #0 comdat align 2 {
  %2 = alloca ptr, align 8
  store ptr %0, ptr %2, align 8
  %3 = load ptr, ptr %2, align 8
  %4 = load ptr, ptr %3, align 8
  %5 = call noundef ptr @_ZN4llvm16cast_convert_valINS_11IntegerTypeEPNS_4TypeES3_E4doitEPKS2_(ptr noundef %4)
  ret ptr %5
}

; Function Attrs: mustprogress nounwind uwtable
define linkonce_odr hidden void @_ZN4llvm5APIntD2Ev(ptr noundef nonnull align 8 dereferenceable(12) %0) unnamed_addr #0 comdat align 2 {
  %2 = alloca ptr, align 8
  store ptr %0, ptr %2, align 8
  %3 = load ptr, ptr %2, align 8
  %4 = call noundef zeroext i1 @_ZNK4llvm5APInt12needsCleanupEv(ptr noundef nonnull align 8 dereferenceable(12) %3)
  br i1 %4, label %5, label %11

5:                                                ; preds = %1
  %6 = getelementptr inbounds nuw %"class.llvm::APInt", ptr %3, i32 0, i32 0
  %7 = load ptr, ptr %6, align 8
  %8 = icmp eq ptr %7, null
  br i1 %8, label %10, label %9

9:                                                ; preds = %5
  call void @_ZdaPv(ptr noundef %7) #15
  br label %10

10:                                               ; preds = %9, %5
  br label %11

11:                                               ; preds = %10, %1
  ret void
}

; Function Attrs: mustprogress nounwind uwtable
define linkonce_odr hidden void @_ZN4llvm5APInt11getMinValueEj(ptr dead_on_unwind noalias writable sret(%"class.llvm::APInt") align 8 %0, i32 noundef %1) #0 comdat align 2 {
  %3 = alloca ptr, align 8
  %4 = alloca i32, align 4
  store ptr %0, ptr %3, align 8
  store i32 %1, ptr %4, align 4
  %5 = load i32, ptr %4, align 4
  call void @_ZN4llvm5APIntC2Ejmbb(ptr noundef nonnull align 8 dereferenceable(12) %0, i32 noundef %5, i64 noundef 0, i1 noundef zeroext false, i1 noundef zeroext true)
  ret void
}

; Function Attrs: mustprogress nounwind uwtable
define linkonce_odr hidden void @_ZN4llvm5APInt17getSignedMinValueEj(ptr dead_on_unwind noalias writable sret(%"class.llvm::APInt") align 8 %0, i32 noundef %1) #0 comdat align 2 {
  %3 = alloca ptr, align 8
  %4 = alloca i32, align 4
  %5 = alloca i1, align 1
  store ptr %0, ptr %3, align 8
  store i32 %1, ptr %4, align 4
  store i1 false, ptr %5, align 1
  %6 = load i32, ptr %4, align 4
  call void @_ZN4llvm5APIntC2Ejmbb(ptr noundef nonnull align 8 dereferenceable(12) %0, i32 noundef %6, i64 noundef 0, i1 noundef zeroext false, i1 noundef zeroext true)
  %7 = load i32, ptr %4, align 4
  %8 = sub i32 %7, 1
  call void @_ZN4llvm5APInt6setBitEj(ptr noundef nonnull align 8 dereferenceable(12) %0, i32 noundef %8)
  store i1 true, ptr %5, align 1
  %9 = load i1, ptr %5, align 1
  br i1 %9, label %11, label %10

10:                                               ; preds = %2
  call void @_ZN4llvm5APIntD2Ev(ptr noundef nonnull align 8 dereferenceable(12) %0) #12
  br label %11

11:                                               ; preds = %10, %2
  ret void
}

; Function Attrs: mustprogress nounwind uwtable
define linkonce_odr hidden noundef i32 @_ZNK4llvm11IntegerType11getBitWidthEv(ptr noundef nonnull align 8 dereferenceable(24) %0) #0 comdat align 2 {
  %2 = alloca ptr, align 8
  store ptr %0, ptr %2, align 8
  %3 = load ptr, ptr %2, align 8
  %4 = call noundef i32 @_ZNK4llvm4Type15getSubclassDataEv(ptr noundef nonnull align 8 dereferenceable(24) %3)
  ret i32 %4
}

; Function Attrs: mustprogress nounwind uwtable
define linkonce_odr hidden noundef ptr @_ZN4llvm4castINS_11IntegerTypeENS_4TypeEEEDcPT0_(ptr noundef %0) #0 comdat {
  %2 = alloca ptr, align 8
  store ptr %0, ptr %2, align 8
  %3 = call noundef ptr @_ZN4llvm8CastInfoINS_11IntegerTypeEPNS_4TypeEvE6doCastERKS3_(ptr noundef nonnull align 8 dereferenceable(8) %2)
  ret ptr %3
}

; Function Attrs: mustprogress nounwind uwtable
define dso_local noundef zeroext i1 @_ZN4llvm17cannotBeMinInLoopEPKNS_4SCEVEPKNS_4LoopERNS_15ScalarEvolutionEb(ptr noundef %0, ptr noundef %1, ptr noundef nonnull align 8 dereferenceable(1392) %2, i1 noundef zeroext %3) #0 {
  %5 = alloca ptr, align 8
  %6 = alloca ptr, align 8
  %7 = alloca ptr, align 8
  %8 = alloca i8, align 1
  %9 = alloca i32, align 4
  %10 = alloca %"class.llvm::APInt", align 8
  %11 = alloca i32, align 4
  store ptr %0, ptr %5, align 8
  store ptr %1, ptr %6, align 8
  store ptr %2, ptr %7, align 8
  %12 = zext i1 %3 to i8
  store i8 %12, ptr %8, align 1
  %13 = load ptr, ptr %5, align 8
  %14 = call noundef ptr @_ZNK4llvm4SCEV7getTypeEv(ptr noundef nonnull align 8 dereferenceable(30) %13)
  %15 = call noundef ptr @_ZN4llvm4castINS_11IntegerTypeENS_4TypeEEEDcPT0_(ptr noundef %14)
  %16 = call noundef i32 @_ZNK4llvm11IntegerType11getBitWidthEv(ptr noundef nonnull align 8 dereferenceable(24) %15)
  store i32 %16, ptr %9, align 4
  %17 = load i8, ptr %8, align 1
  %18 = trunc i8 %17 to i1
  br i1 %18, label %19, label %21

19:                                               ; preds = %4
  %20 = load i32, ptr %9, align 4
  call void @_ZN4llvm5APInt17getSignedMinValueEj(ptr dead_on_unwind writable sret(%"class.llvm::APInt") align 8 %10, i32 noundef %20)
  br label %23

21:                                               ; preds = %4
  %22 = load i32, ptr %9, align 4
  call void @_ZN4llvm5APInt11getMinValueEj(ptr dead_on_unwind writable sret(%"class.llvm::APInt") align 8 %10, i32 noundef %22)
  br label %23

23:                                               ; preds = %21, %19
  %24 = load i8, ptr %8, align 1
  %25 = trunc i8 %24 to i1
  %26 = select i1 %25, i32 38, i32 34
  store i32 %26, ptr %11, align 4
  %27 = load ptr, ptr %7, align 8
  %28 = load ptr, ptr %5, align 8
  %29 = load ptr, ptr %6, align 8
  %30 = call noundef zeroext i1 @_ZN4llvm15ScalarEvolution22isAvailableAtLoopEntryEPKNS_4SCEVEPKNS_4LoopE(ptr noundef nonnull align 8 dereferenceable(1392) %27, ptr noundef %28, ptr noundef %29)
  br i1 %30, label %31, label %39

31:                                               ; preds = %23
  %32 = load ptr, ptr %7, align 8
  %33 = load ptr, ptr %6, align 8
  %34 = load i32, ptr %11, align 4
  %35 = load ptr, ptr %5, align 8
  %36 = load ptr, ptr %7, align 8
  %37 = call noundef ptr @_ZN4llvm15ScalarEvolution11getConstantERKNS_5APIntE(ptr noundef nonnull align 8 dereferenceable(1392) %36, ptr noundef nonnull align 8 dereferenceable(12) %10)
  %38 = call noundef zeroext i1 @_ZN4llvm15ScalarEvolution24isLoopEntryGuardedByCondEPKNS_4LoopENS_7CmpInst9PredicateEPKNS_4SCEVES8_(ptr noundef nonnull align 8 dereferenceable(1392) %32, ptr noundef %33, i32 noundef %34, ptr noundef %35, ptr noundef %37)
  br label %39

39:                                               ; preds = %31, %23
  %40 = phi i1 [ false, %23 ], [ %38, %31 ]
  call void @_ZN4llvm5APIntD2Ev(ptr noundef nonnull align 8 dereferenceable(12) %10) #12
  ret i1 %40
}