; Function Attrs: mustprogress nounwind uwtable
define dso_local noundef zeroext i1 @_ZN4llvm17cannotBeMinInLoopEPKNS_4SCEVEPKNS_4LoopERNS_15ScalarEvolutionEb(ptr noundef nonnull %0, ptr noundef %1, ptr noundef nonnull align 8 dereferenceable(1392) %2, i1 noundef zeroext %3) local_unnamed_addr #0 {
  %5 = alloca %"class.llvm::APInt", align 8
  %6 = tail call noundef ptr @_ZNK4llvm4SCEV7getTypeEv(ptr noundef nonnull align 8 dereferenceable(30) %0) #17
  %7 = getelementptr inbounds nuw i8, ptr %6, i64 8
  %8 = load i32, ptr %7, align 8
  %9 = lshr i32 %8, 8
  %10 = getelementptr inbounds nuw i8, ptr %5, i64 8
  store i32 %9, ptr %10, align 8
  %11 = icmp ult i32 %8, 16640
  br i1 %3, label %12, label %23

12:                                               ; preds = %4
  br i1 %11, label %_ZN4llvm5APIntC2Ejmbb.exit.thread.i, label %_ZN4llvm5APIntC2Ejmbb.exit.i

_ZN4llvm5APIntC2Ejmbb.exit.thread.i:              ; preds = %12
  store i64 0, ptr %5, align 8, !alias.scope !87
  %13 = add nuw nsw i32 %9, 63
  br label %_ZN4llvm5APInt17getSignedMinValueEj.exit

_ZN4llvm5APIntC2Ejmbb.exit.i:                     ; preds = %12
  call void @_ZN4llvm5APInt12initSlowCaseEmb(ptr noundef nonnull align 8 dereferenceable(12) %5, i64 noundef 0, i1 noundef zeroext false) #17
  %.pre.i = load i32, ptr %10, align 8, !alias.scope !87
  %.pre2.i = load ptr, ptr %5, align 8, !alias.scope !87
  %.pre.fr.i = freeze i32 %.pre.i
  %14 = icmp ult i32 %.pre.fr.i, 65
  %15 = add nsw i32 %9, -1
  %16 = lshr i32 %15, 6
  %17 = zext nneg i32 %16 to i64
  %18 = getelementptr inbounds i64, ptr %.pre2.i, i64 %17
  %spec.select.i = select i1 %14, ptr %5, ptr %18
  %.pre = load i64, ptr %spec.select.i, align 8
  br label %_ZN4llvm5APInt17getSignedMinValueEj.exit

_ZN4llvm5APInt17getSignedMinValueEj.exit:         ; preds = %_ZN4llvm5APIntC2Ejmbb.exit.thread.i, %_ZN4llvm5APIntC2Ejmbb.exit.i
  %19 = phi i64 [ 0, %_ZN4llvm5APIntC2Ejmbb.exit.thread.i ], [ %.pre, %_ZN4llvm5APIntC2Ejmbb.exit.i ]
  %.pn.in.in.i = phi i32 [ %13, %_ZN4llvm5APIntC2Ejmbb.exit.thread.i ], [ %15, %_ZN4llvm5APIntC2Ejmbb.exit.i ]
  %20 = phi ptr [ %5, %_ZN4llvm5APIntC2Ejmbb.exit.thread.i ], [ %spec.select.i, %_ZN4llvm5APIntC2Ejmbb.exit.i ]
  %.pn.in.i = and i32 %.pn.in.in.i, 63
  %.pn.i = zext nneg i32 %.pn.in.i to i64
  %21 = shl nuw i64 1, %.pn.i
  %22 = or i64 %21, %19
  store i64 %22, ptr %20, align 8
  br label %_ZN4llvm5APInt11getMinValueEj.exit

23:                                               ; preds = %4
  br i1 %11, label %24, label %25

24:                                               ; preds = %23
  store i64 0, ptr %5, align 8, !alias.scope !90
  br label %_ZN4llvm5APInt11getMinValueEj.exit

25:                                               ; preds = %23
  call void @_ZN4llvm5APInt12initSlowCaseEmb(ptr noundef nonnull align 8 dereferenceable(12) %5, i64 noundef 0, i1 noundef zeroext false) #17
  br label %_ZN4llvm5APInt11getMinValueEj.exit

_ZN4llvm5APInt11getMinValueEj.exit:               ; preds = %25, %24, %_ZN4llvm5APInt17getSignedMinValueEj.exit
  %26 = call noundef zeroext i1 @_ZN4llvm15ScalarEvolution22isAvailableAtLoopEntryEPKNS_4SCEVEPKNS_4LoopE(ptr noundef nonnull align 8 dereferenceable(1392) %2, ptr noundef nonnull %0, ptr noundef %1) #17
  br i1 %26, label %27, label %31

27:                                               ; preds = %_ZN4llvm5APInt11getMinValueEj.exit
  %28 = select i1 %3, i32 38, i32 34
  %29 = call noundef ptr @_ZN4llvm15ScalarEvolution11getConstantERKNS_5APIntE(ptr noundef nonnull align 8 dereferenceable(1392) %2, ptr noundef nonnull align 8 dereferenceable(12) %5) #17
  %30 = call noundef zeroext i1 @_ZN4llvm15ScalarEvolution24isLoopEntryGuardedByCondEPKNS_4LoopENS_7CmpInst9PredicateEPKNS_4SCEVES8_(ptr noundef nonnull align 8 dereferenceable(1392) %2, ptr noundef %1, i32 noundef %28, ptr noundef nonnull %0, ptr noundef %29) #17
  br label %31

31:                                               ; preds = %27, %_ZN4llvm5APInt11getMinValueEj.exit
  %32 = phi i1 [ false, %_ZN4llvm5APInt11getMinValueEj.exit ], [ %30, %27 ]
  %33 = getelementptr inbounds nuw i8, ptr %5, i64 8
  %34 = load i32, ptr %33, align 8
  %35 = icmp ugt i32 %34, 64
  br i1 %35, label %36, label %_ZN4llvm5APIntD2Ev.exit

36:                                               ; preds = %31
  %37 = load ptr, ptr %5, align 8
  %38 = icmp eq ptr %37, null
  br i1 %38, label %_ZN4llvm5APIntD2Ev.exit, label %39

39:                                               ; preds = %36
  call void @_ZdaPv(ptr noundef nonnull %37) #20
  br label %_ZN4llvm5APIntD2Ev.exit

_ZN4llvm5APIntD2Ev.exit:                          ; preds = %31, %36, %39
  ret i1 %32
}